; Function Attrs: mustprogress uwtable
define void @_ZN6casadi7UnaryMXC2ENS_9OperationENS_2MXE(ptr noundef nonnull align 8 dereferenceable(68) %0, i32 noundef %1, ptr noundef %2) unnamed_addr #3 align 2 personality ptr @__gxx_personality_v0 {
  %4 = alloca %"class.casadi::MX", align 8
  %5 = alloca %"class.casadi::MX", align 8
  tail call void @_ZN6casadi6MXNodeC2Ev(ptr noundef nonnull align 8 dereferenceable(64) %0)
  store ptr getelementptr inbounds nuw inrange(-16, 888) (i8, ptr @_ZTVN6casadi7UnaryMXE, i64 16), ptr %0, align 8, !tbaa !3
  %6 = getelementptr inbounds nuw i8, ptr %0, i64 64
  store i32 %1, ptr %6, align 8, !tbaa !6
  %7 = zext i32 %1 to i64
  %8 = tail call noundef zeroext i1 @_ZN6casadi16operation_getterINS_10F00CheckerEbEET0_x(i64 noundef %7)
  br i1 %8, label %20, label %9

9:                                                ; preds = %3
  call void @llvm.lifetime.start.p0(i64 8, ptr nonnull %5) #21
  call void @llvm.lifetime.start.p0(i64 8, ptr nonnull %4) #21, !noalias !25
  invoke void @_ZN6casadi2MXC1Ed(ptr noundef nonnull align 8 dereferenceable(8) %4, double noundef 0.000000e+00)
          to label %.noexc unwind label %16

.noexc:                                           ; preds = %9
  invoke void @_ZN6casadi2MX7densifyERKS0_S2_(ptr dead_on_unwind nonnull writable sret(%"class.casadi::MX") align 8 %5, ptr noundef nonnull align 8 dereferenceable(8) %2, ptr noundef nonnull align 8 dereferenceable(8) %4)
          to label %12 unwind label %10

10:                                               ; preds = %.noexc
  %11 = landingpad { ptr, i32 }
          cleanup
  call void @_ZN6casadi2MXD1Ev(ptr noundef nonnull align 8 dereferenceable(8) %4) #21
  call void @llvm.lifetime.end.p0(i64 8, ptr nonnull %4) #21, !noalias !25
  br label %.body

12:                                               ; preds = %.noexc
  call void @_ZN6casadi2MXD1Ev(ptr noundef nonnull align 8 dereferenceable(8) %4) #21
  call void @llvm.lifetime.end.p0(i64 8, ptr nonnull %4) #21, !noalias !25
  %13 = invoke noundef nonnull align 8 dereferenceable(8) ptr @_ZN6casadi13GenericSharedINS_12SharedObjectENS_20SharedObjectInternalEEaSERKS3_(ptr noundef nonnull align 8 dereferenceable(8) %2, ptr noundef nonnull align 8 dereferenceable(8) %5)
          to label %_ZN6casadi2MXaSERKS0_.exit unwind label %18

_ZN6casadi2MXaSERKS0_.exit:                       ; preds = %12
  call void @_ZN6casadi2MXD1Ev(ptr noundef nonnull align 8 dereferenceable(8) %5) #21
  call void @llvm.lifetime.end.p0(i64 8, ptr nonnull %5) #21
  br label %20

14:                                               ; preds = %23, %21, %20
  %15 = landingpad { ptr, i32 }
          cleanup
  br label %26

16:                                               ; preds = %9
  %17 = landingpad { ptr, i32 }
          cleanup
  br label %.body

18:                                               ; preds = %12
  %19 = landingpad { ptr, i32 }
          cleanup
  call void @_ZN6casadi2MXD1Ev(ptr noundef nonnull align 8 dereferenceable(8) %5) #21
  br label %.body

.body:                                            ; preds = %16, %10, %18
  %.pn = phi { ptr, i32 } [ %19, %18 ], [ %17, %16 ], [ %11, %10 ]
  call void @llvm.lifetime.end.p0(i64 8, ptr nonnull %5) #21
  br label %26

20:                                               ; preds = %_ZN6casadi2MXaSERKS0_.exit, %3
  invoke void @_ZN6casadi6MXNode7set_depERKNS_2MXE(ptr noundef nonnull align 8 dereferenceable(64) %0, ptr noundef nonnull align 8 dereferenceable(8) %2)
          to label %21 unwind label %14

21:                                               ; preds = %20
  %22 = invoke noundef ptr @_ZN6casadi2MXptEv(ptr noundef nonnull align 8 dereferenceable(8) %2)
          to label %23 unwind label %14

23:                                               ; preds = %21
  %24 = getelementptr inbounds nuw i8, ptr %22, i64 56
  invoke void @_ZN6casadi6MXNode12set_sparsityERKNS_8SparsityE(ptr noundef nonnull align 8 dereferenceable(64) %0, ptr noundef nonnull align 8 dereferenceable(8) %24)
          to label %25 unwind label %14

25:                                               ; preds = %23
  ret void

26:                                               ; preds = %.body, %14
  %.pn6 = phi { ptr, i32 } [ %15, %14 ], [ %.pn, %.body ]
  call void @_ZN6casadi6MXNodeD2Ev(ptr noundef nonnull align 8 dereferenceable(64) %0) #21
  resume { ptr, i32 } %.pn6
}